target datalayout = "e-m:e-p270:32:32-p271:32:32-p272:64:64-i64:64-i128:128-f80:128-n8:16:32:64-S128"
target triple = "x86_64-pc-linux-gnu"

%struct.H5CX_node_t = type { %struct.H5CX_t, ptr }
%struct.H5CX_t = type { i64, ptr, i64, ptr, i64, ptr, i64, ptr, i64, ptr, i64, ptr, i64, i32, i64, i8, ptr, i8, ptr, i8, i32, i8, [3 x double], i8, i64, i8, i32, i8, %struct.H5Z_cb_t, i8, ptr, i8, %struct.H5T_vlen_alloc_info_t, i8, %struct.H5T_conv_cb_t, i8, i32, i8, i8, i8, i32, i8, i8, i32, i8, i8, i32, i8, i32, i8, i64, i8, i8, i8, i8, i8, ptr, i8, ptr, i8, i32, i8, i32, i8, %struct.H5VL_connector_prop_t, i8, ptr, i8 }
%struct.H5Z_cb_t = type { ptr, ptr }
%struct.H5T_vlen_alloc_info_t = type { ptr, ptr, ptr, ptr }
%struct.H5T_conv_cb_t = type { ptr, ptr }
%struct.H5VL_connector_prop_t = type { ptr, ptr }
%struct.H5VL_optional_args_t = type { i32, ptr }
%union.H5VL_native_file_optional_args_t = type { %struct.H5VL_native_file_get_page_buffering_stats_t }
%struct.H5VL_native_file_get_page_buffering_stats_t = type { ptr, ptr, ptr, ptr, ptr }
%struct.H5VL_native_file_get_freespace_t = type { ptr }

@H5_libinit_g = external global i8, align 1
@H5_libterm_g = external global i8, align 1
@.str = private unnamed_addr constant [97 x i8] c"generated/home/dtcxzyw/WorkSpace/Projects/compilers/llvm-opt-benchmark/bench/hdf5/hdf5/src/H5F.c\00", align 1
@H5E_FUNC_g = external global i64, align 8
@H5E_CANTINIT_g = external global i64, align 8
@.str.1 = private unnamed_addr constant [30 x i8] c"library initialization failed\00", align 1
@H5F_init_g = external global i8, align 1
@.str.2 = private unnamed_addr constant [32 x i8] c"interface initialization failed\00", align 1
@H5E_CANTSET_g = external global i64, align 8
@.str.3 = private unnamed_addr constant [22 x i8] c"can't set API context\00", align 1
@H5E_ARGS_g = external global i64, align 8
@H5E_BADTYPE_g = external global i64, align 8
@.str.4 = private unnamed_addr constant [24 x i8] c"invalid file identifier\00", align 1
@H5P_LST_DATASET_XFER_ID_g = external global i64, align 8
@H5E_FILE_g = external global i64, align 8
@H5E_CANTGET_g = external global i64, align 8
@__func__.H5Fget_freespace = private unnamed_addr constant [17 x i8] c"H5Fget_freespace\00", align 1
@.str.81 = private unnamed_addr constant [30 x i8] c"unable to get file free space\00", align 1

; Function Attrs: nounwind uwtable
define i64 @H5Fget_freespace(i64 noundef %0) #0 {
  %2 = alloca i64, align 8
  %3 = alloca ptr, align 8
  %4 = alloca %struct.H5VL_optional_args_t, align 8
  %5 = alloca %union.H5VL_native_file_optional_args_t, align 8
  %6 = alloca i64, align 8
  %7 = alloca i64, align 8
  %8 = alloca %struct.H5CX_node_t, align 8
  %9 = alloca i8, align 1
  %10 = alloca i8, align 1
  store i64 %0, ptr %2, align 8, !tbaa !3
  call void @llvm.lifetime.start.p0(i64 8, ptr %3) #5
  store ptr null, ptr %3, align 8, !tbaa !11
  call void @llvm.lifetime.start.p0(i64 16, ptr %4) #5
  call void @llvm.lifetime.start.p0(i64 40, ptr %5) #5
  call void @llvm.lifetime.start.p0(i64 8, ptr %6) #5
  store i64 0, ptr %6, align 8, !tbaa !3
  call void @llvm.lifetime.start.p0(i64 8, ptr %7) #5
  call void @llvm.lifetime.start.p0(i64 480, ptr %8) #5
  call void @llvm.memset.p0.i64(ptr align 8 %8, i8 0, i64 480, i1 false)
  call void @llvm.lifetime.start.p0(i64 1, ptr %9) #5
  store i8 0, ptr %9, align 1, !tbaa !7
  call void @llvm.lifetime.start.p0(i64 1, ptr %10) #5
  store i8 0, ptr %10, align 1, !tbaa !7
  br label %11

11:                                               ; preds = %1
  %12 = load i8, ptr @H5_libinit_g, align 1, !tbaa !7, !range !9, !noundef !10
  %13 = trunc i8 %12 to i1
  br i1 %13, label %18, label %14

14:                                               ; preds = %11
  %15 = load i8, ptr @H5_libterm_g, align 1, !tbaa !7, !range !9, !noundef !10
  %16 = trunc i8 %15 to i1
  %17 = xor i1 %16, true
  br label %18

18:                                               ; preds = %14, %11
  %19 = phi i1 [ false, %11 ], [ %17, %14 ]
  %20 = xor i1 %19, true
  %21 = xor i1 %20, true
  %22 = zext i1 %21 to i32
  %23 = sext i32 %22 to i64
  %24 = call i64 @llvm.expect.i64(i64 %23, i64 0)
  %25 = icmp ne i64 %24, 0
  br i1 %25, label %26, label %55

26:                                               ; preds = %18
  %27 = call i32 @H5_init_library()
  %28 = icmp slt i32 %27, 0
  %29 = xor i1 %28, true
  %30 = xor i1 %29, true
  %31 = zext i1 %30 to i32
  %32 = sext i32 %31 to i64
  %33 = call i64 @llvm.expect.i64(i64 %32, i64 0)
  %34 = icmp ne i64 %33, 0
  br i1 %34, label %35, label %54

35:                                               ; preds = %26
  br label %36

36:                                               ; preds = %35
  br label %37

37:                                               ; preds = %36
  br label %38

38:                                               ; preds = %37
  %39 = load i64, ptr @H5E_FUNC_g, align 8, !tbaa !3
  %40 = load i64, ptr @H5E_CANTINIT_g, align 8, !tbaa !3
  %41 = call i32 (ptr, ptr, i32, i64, i64, ptr, ...) @H5E_printf_stack(ptr noundef @.str, ptr noundef @__func__.H5Fget_freespace, i32 noundef 1625, i64 noundef %39, i64 noundef %40, ptr noundef @.str.1)
  br label %42

42:                                               ; preds = %38
  br label %43

43:                                               ; preds = %42
  store i8 1, ptr %10, align 1, !tbaa !7
  %44 = load i8, ptr %10, align 1, !tbaa !7, !range !9, !noundef !10
  %45 = trunc i8 %44 to i1
  %46 = zext i1 %45 to i8
  store i8 %46, ptr %10, align 1, !tbaa !7
  br label %47

47:                                               ; preds = %43
  br label %48

48:                                               ; preds = %47
  br label %49

49:                                               ; preds = %48
  store i64 -1, ptr %7, align 8, !tbaa !3
  br label %180

50:                                               ; No predecessors!
  br label %51

51:                                               ; preds = %50
  br label %52

52:                                               ; preds = %51
  br label %53

53:                                               ; preds = %52
  br label %54

54:                                               ; preds = %53, %26
  br label %55

55:                                               ; preds = %54, %18
  %56 = load i8, ptr @H5F_init_g, align 1, !tbaa !7, !range !9, !noundef !10
  %57 = trunc i8 %56 to i1
  br i1 %57, label %62, label %58

58:                                               ; preds = %55
  %59 = load i8, ptr @H5_libterm_g, align 1, !tbaa !7, !range !9, !noundef !10
  %60 = trunc i8 %59 to i1
  %61 = xor i1 %60, true
  br label %62

62:                                               ; preds = %58, %55
  %63 = phi i1 [ false, %55 ], [ %61, %58 ]
  %64 = xor i1 %63, true
  %65 = xor i1 %64, true
  %66 = zext i1 %65 to i32
  %67 = sext i32 %66 to i64
  %68 = call i64 @llvm.expect.i64(i64 %67, i64 0)
  %69 = icmp ne i64 %68, 0
  br i1 %69, label %70, label %93

70:                                               ; preds = %62
  store i8 1, ptr @H5F_init_g, align 1, !tbaa !7
  %71 = call i32 @H5F__init_package()
  %72 = icmp slt i32 %71, 0
  br i1 %72, label %73, label %92

73:                                               ; preds = %70
  store i8 0, ptr @H5F_init_g, align 1, !tbaa !7
  br label %74

74:                                               ; preds = %73
  br label %75

75:                                               ; preds = %74
  br label %76

76:                                               ; preds = %75
  %77 = load i64, ptr @H5E_FUNC_g, align 8, !tbaa !3
  %78 = load i64, ptr @H5E_CANTINIT_g, align 8, !tbaa !3
  %79 = call i32 (ptr, ptr, i32, i64, i64, ptr, ...) @H5E_printf_stack(ptr noundef @.str, ptr noundef @__func__.H5Fget_freespace, i32 noundef 1625, i64 noundef %77, i64 noundef %78, ptr noundef @.str.2)
  br label %80

80:                                               ; preds = %76
  br label %81

81:                                               ; preds = %80
  store i8 1, ptr %10, align 1, !tbaa !7
  %82 = load i8, ptr %10, align 1, !tbaa !7, !range !9, !noundef !10
  %83 = trunc i8 %82 to i1
  %84 = zext i1 %83 to i8
  store i8 %84, ptr %10, align 1, !tbaa !7
  br label %85

85:                                               ; preds = %81
  br label %86

86:                                               ; preds = %85
  br label %87

87:                                               ; preds = %86
  store i64 -1, ptr %7, align 8, !tbaa !3
  br label %180

88:                                               ; No predecessors!
  br label %89

89:                                               ; preds = %88
  br label %90

90:                                               ; preds = %89
  br label %91

91:                                               ; preds = %90
  br label %92

92:                                               ; preds = %91, %70
  br label %93

93:                                               ; preds = %92, %62
  br label %94

94:                                               ; preds = %93
  br label %95

95:                                               ; preds = %94
  br label %96

96:                                               ; preds = %95
  %97 = call i32 @H5CX_push(ptr noundef %8)
  %98 = icmp slt i32 %97, 0
  %99 = xor i1 %98, true
  %100 = xor i1 %99, true
  %101 = zext i1 %100 to i32
  %102 = sext i32 %101 to i64
  %103 = call i64 @llvm.expect.i64(i64 %102, i64 0)
  %104 = icmp ne i64 %103, 0
  br i1 %104, label %105, label %124

105:                                              ; preds = %96
  br label %106

106:                                              ; preds = %105
  br label %107

107:                                              ; preds = %106
  br label %108

108:                                              ; preds = %107
  %109 = load i64, ptr @H5E_FUNC_g, align 8, !tbaa !3
  %110 = load i64, ptr @H5E_CANTSET_g, align 8, !tbaa !3
  %111 = call i32 (ptr, ptr, i32, i64, i64, ptr, ...) @H5E_printf_stack(ptr noundef @.str, ptr noundef @__func__.H5Fget_freespace, i32 noundef 1625, i64 noundef %109, i64 noundef %110, ptr noundef @.str.3)
  br label %112

112:                                              ; preds = %108
  br label %113

113:                                              ; preds = %112
  store i8 1, ptr %10, align 1, !tbaa !7
  %114 = load i8, ptr %10, align 1, !tbaa !7, !range !9, !noundef !10
  %115 = trunc i8 %114 to i1
  %116 = zext i1 %115 to i8
  store i8 %116, ptr %10, align 1, !tbaa !7
  br label %117

117:                                              ; preds = %113
  br label %118

118:                                              ; preds = %117
  br label %119

119:                                              ; preds = %118
  store i64 -1, ptr %7, align 8, !tbaa !3
  br label %180

120:                                              ; No predecessors!
  br label %121

121:                                              ; preds = %120
  br label %122

122:                                              ; preds = %121
  br label %123

123:                                              ; preds = %122
  br label %125

124:                                              ; preds = %96
  store i8 1, ptr %9, align 1, !tbaa !7
  br label %125

125:                                              ; preds = %124, %123
  br label %126

126:                                              ; preds = %125
  br label %127

127:                                              ; preds = %126
  %128 = call i32 @H5E_clear_stack()
  %129 = load i64, ptr %2, align 8, !tbaa !3
  %130 = call ptr @H5VL_vol_object_verify(i64 noundef %129, i32 noundef 1)
  store ptr %130, ptr %3, align 8, !tbaa !11
  %131 = icmp eq ptr null, %130
  br i1 %131, label %132, label %151

132:                                              ; preds = %127
  br label %133

133:                                              ; preds = %132
  br label %134

134:                                              ; preds = %133
  br label %135

135:                                              ; preds = %134
  %136 = load i64, ptr @H5E_ARGS_g, align 8, !tbaa !3
  %137 = load i64, ptr @H5E_BADTYPE_g, align 8, !tbaa !3
  %138 = call i32 (ptr, ptr, i32, i64, i64, ptr, ...) @H5E_printf_stack(ptr noundef @.str, ptr noundef @__func__.H5Fget_freespace, i32 noundef 1629, i64 noundef %136, i64 noundef %137, ptr noundef @.str.4)
  br label %139

139:                                              ; preds = %135
  br label %140

140:                                              ; preds = %139
  store i8 1, ptr %10, align 1, !tbaa !7
  %141 = load i8, ptr %10, align 1, !tbaa !7, !range !9, !noundef !10
  %142 = trunc i8 %141 to i1
  %143 = zext i1 %142 to i8
  store i8 %143, ptr %10, align 1, !tbaa !7
  br label %144

144:                                              ; preds = %140
  br label %145

145:                                              ; preds = %144
  br label %146

146:                                              ; preds = %145
  store i64 -1, ptr %7, align 8, !tbaa !3
  br label %180

147:                                              ; No predecessors!
  br label %148

148:                                              ; preds = %147
  br label %149

149:                                              ; preds = %148
  br label %150

150:                                              ; preds = %149
  br label %151

151:                                              ; preds = %150, %127
  %152 = getelementptr inbounds nuw %struct.H5VL_native_file_get_freespace_t, ptr %5, i32 0, i32 0
  store ptr %6, ptr %152, align 8, !tbaa !17
  %153 = getelementptr inbounds nuw %struct.H5VL_optional_args_t, ptr %4, i32 0, i32 0
  store i32 3, ptr %153, align 8, !tbaa !29
  %154 = getelementptr inbounds nuw %struct.H5VL_optional_args_t, ptr %4, i32 0, i32 1
  store ptr %5, ptr %154, align 8, !tbaa !31
  %155 = load ptr, ptr %3, align 8, !tbaa !11
  %156 = load i64, ptr @H5P_LST_DATASET_XFER_ID_g, align 8, !tbaa !3
  %157 = call i32 @H5VL_file_optional(ptr noundef %155, ptr noundef %4, i64 noundef %156, ptr noundef null)
  %158 = icmp slt i32 %157, 0
  br i1 %158, label %159, label %178

159:                                              ; preds = %151
  br label %160

160:                                              ; preds = %159
  br label %161

161:                                              ; preds = %160
  br label %162

162:                                              ; preds = %161
  %163 = load i64, ptr @H5E_FILE_g, align 8, !tbaa !3
  %164 = load i64, ptr @H5E_CANTGET_g, align 8, !tbaa !3
  %165 = call i32 (ptr, ptr, i32, i64, i64, ptr, ...) @H5E_printf_stack(ptr noundef @.str, ptr noundef @__func__.H5Fget_freespace, i32 noundef 1638, i64 noundef %163, i64 noundef %164, ptr noundef @.str.81)
  br label %166

166:                                              ; preds = %162
  br label %167

167:                                              ; preds = %166
  store i8 1, ptr %10, align 1, !tbaa !7
  %168 = load i8, ptr %10, align 1, !tbaa !7, !range !9, !noundef !10
  %169 = trunc i8 %168 to i1
  %170 = zext i1 %169 to i8
  store i8 %170, ptr %10, align 1, !tbaa !7
  br label %171

171:                                              ; preds = %167
  br label %172

172:                                              ; preds = %171
  br label %173

173:                                              ; preds = %172
  store i64 -1, ptr %7, align 8, !tbaa !3
  br label %180

174:                                              ; No predecessors!
  br label %175

175:                                              ; preds = %174
  br label %176

176:                                              ; preds = %175
  br label %177

177:                                              ; preds = %176
  br label %178

178:                                              ; preds = %177, %151
  %179 = load i64, ptr %6, align 8, !tbaa !3
  store i64 %179, ptr %7, align 8, !tbaa !3
  br label %180

180:                                              ; preds = %178, %173, %146, %119, %87, %49
  %181 = load i8, ptr %9, align 1, !tbaa !7, !range !9, !noundef !10
  %182 = trunc i8 %181 to i1
  %183 = xor i1 %182, true
  %184 = xor i1 %183, true
  %185 = zext i1 %184 to i32
  %186 = sext i32 %185 to i64
  %187 = call i64 @llvm.expect.i64(i64 %186, i64 1)
  %188 = icmp ne i64 %187, 0
  br i1 %188, label %189, label %191

189:                                              ; preds = %180
  %190 = call i32 @H5CX_pop(i1 noundef zeroext true)
  store i8 0, ptr %9, align 1, !tbaa !7
  br label %191

191:                                              ; preds = %189, %180
  %192 = load i8, ptr %10, align 1, !tbaa !7, !range !9, !noundef !10
  %193 = trunc i8 %192 to i1
  %194 = xor i1 %193, true
  %195 = xor i1 %194, true
  %196 = zext i1 %195 to i32
  %197 = sext i32 %196 to i64
  %198 = call i64 @llvm.expect.i64(i64 %197, i64 0)
  %199 = icmp ne i64 %198, 0
  br i1 %199, label %200, label %202

200:                                              ; preds = %191
  %201 = call i32 @H5E_dump_api_stack()
  br label %202

202:                                              ; preds = %200, %191
  %203 = load i64, ptr %7, align 8, !tbaa !3
  call void @llvm.lifetime.end.p0(i64 1, ptr %10) #5
  call void @llvm.lifetime.end.p0(i64 1, ptr %9) #5
  call void @llvm.lifetime.end.p0(i64 480, ptr %8) #5
  call void @llvm.lifetime.end.p0(i64 8, ptr %7) #5
  call void @llvm.lifetime.end.p0(i64 8, ptr %6) #5
  call void @llvm.lifetime.end.p0(i64 40, ptr %5) #5
  call void @llvm.lifetime.end.p0(i64 16, ptr %4) #5
  call void @llvm.lifetime.end.p0(i64 8, ptr %3) #5
  ret i64 %203
}